target datalayout = "e-m:e-p270:32:32-p271:32:32-p272:64:64-i64:64-i128:128-f80:128-n8:16:32:64-S128"
target triple = "x86_64-pc-linux-gnu"

%struct._cmsMD5 = type { [4 x i32], [2 x i32], [64 x i8], ptr }

; Function Attrs: nounwind uwtable
define hidden ptr @cmsMD5alloc(ptr noundef %0) #0 {
  %2 = alloca ptr, align 8
  %3 = alloca ptr, align 8
  %4 = alloca ptr, align 8
  store ptr %0, ptr %3, align 8
  %5 = load ptr, ptr %3, align 8
  %6 = call ptr @_cmsMallocZero(ptr noundef %5, i32 noundef 96)
  store ptr %6, ptr %4, align 8
  %7 = load ptr, ptr %4, align 8
  %8 = icmp eq ptr %7, null
  br i1 %8, label %9, label %10

9:                                                ; preds = %1
  store ptr null, ptr %2, align 8
  br label %33

10:                                               ; preds = %1
  %11 = load ptr, ptr %3, align 8
  %12 = load ptr, ptr %4, align 8
  %13 = getelementptr inbounds %struct._cmsMD5, ptr %12, i32 0, i32 3
  store ptr %11, ptr %13, align 8
  %14 = load ptr, ptr %4, align 8
  %15 = getelementptr inbounds %struct._cmsMD5, ptr %14, i32 0, i32 0
  %16 = getelementptr inbounds [4 x i32], ptr %15, i64 0, i64 0
  store i32 1732584193, ptr %16, align 8
  %17 = load ptr, ptr %4, align 8
  %18 = getelementptr inbounds %struct._cmsMD5, ptr %17, i32 0, i32 0
  %19 = getelementptr inbounds [4 x i32], ptr %18, i64 0, i64 1
  store i32 -271733879, ptr %19, align 4
  %20 = load ptr, ptr %4, align 8
  %21 = getelementptr inbounds %struct._cmsMD5, ptr %20, i32 0, i32 0
  %22 = getelementptr inbounds [4 x i32], ptr %21, i64 0, i64 2
  store i32 -1732584194, ptr %22, align 8
  %23 = load ptr, ptr %4, align 8
  %24 = getelementptr inbounds %struct._cmsMD5, ptr %23, i32 0, i32 0
  %25 = getelementptr inbounds [4 x i32], ptr %24, i64 0, i64 3
  store i32 271733878, ptr %25, align 4
  %26 = load ptr, ptr %4, align 8
  %27 = getelementptr inbounds %struct._cmsMD5, ptr %26, i32 0, i32 1
  %28 = getelementptr inbounds [2 x i32], ptr %27, i64 0, i64 0
  store i32 0, ptr %28, align 8
  %29 = load ptr, ptr %4, align 8
  %30 = getelementptr inbounds %struct._cmsMD5, ptr %29, i32 0, i32 1
  %31 = getelementptr inbounds [2 x i32], ptr %30, i64 0, i64 1
  store i32 0, ptr %31, align 4
  %32 = load ptr, ptr %4, align 8
  store ptr %32, ptr %2, align 8
  br label %33

33:                                               ; preds = %10, %9
  %34 = load ptr, ptr %2, align 8
  ret ptr %34
}