; Function Attrs: nounwind uwtable
define hidden ptr @cmsMD5alloc(ptr noundef %0) local_unnamed_addr #0 {
  %2 = tail call ptr @_cmsMallocZero(ptr noundef %0, i32 noundef 96) #8
  %3 = icmp eq ptr %2, null
  br i1 %3, label %8, label %4

4:                                                ; preds = %1
  %5 = getelementptr inbounds i8, ptr %2, i64 88
  store ptr %0, ptr %5, align 8
  store <4 x i32> <i32 1732584193, i32 -271733879, i32 -1732584194, i32 271733878>, ptr %2, align 8
  %6 = getelementptr inbounds i8, ptr %2, i64 16
  store i32 0, ptr %6, align 8
  %7 = getelementptr inbounds i8, ptr %2, i64 20
  store i32 0, ptr %7, align 4
  br label %8

8:                                                ; preds = %1, %4
  ret ptr %2
}